target datalayout = "e-m:e-p270:32:32-p271:32:32-p272:64:64-i64:64-i128:128-f80:128-n8:16:32:64-S128"
target triple = "x86_64-pc-linux-gnu"

%"class.google::protobuf::stringpiece_internal::StringPiece" = type { ptr, i64 }
%"class.std::reverse_iterator" = type { ptr }

; Function Attrs: inlinehint mustprogress nounwind uwtable
define linkonce_odr void @_ZSt9__advanceIPKclEvRT_T0_St26random_access_iterator_tag(ptr noundef nonnull align 8 dereferenceable(8) %0, i64 noundef %1) #6 comdat {
  %3 = alloca ptr, align 8
  %4 = alloca i64, align 8
  store ptr %0, ptr %3, align 8, !tbaa !51
  store i64 %1, ptr %4, align 8, !tbaa !15
  %5 = load i64, ptr %4, align 8, !tbaa !15
  %6 = call i1 @llvm.is.constant.i64(i64 %5)
  br i1 %6, label %7, label %14

7:                                                ; preds = %2
  %8 = load i64, ptr %4, align 8, !tbaa !15
  %9 = icmp eq i64 %8, 1
  br i1 %9, label %10, label %14

10:                                               ; preds = %7
  %11 = load ptr, ptr %3, align 8, !tbaa !51
  %12 = load ptr, ptr %11, align 8, !tbaa !16
  %13 = getelementptr inbounds nuw i8, ptr %12, i32 1
  store ptr %13, ptr %11, align 8, !tbaa !16
  br label %30

14:                                               ; preds = %7, %2
  %15 = load i64, ptr %4, align 8, !tbaa !15
  %16 = call i1 @llvm.is.constant.i64(i64 %15)
  br i1 %16, label %17, label %24

17:                                               ; preds = %14
  %18 = load i64, ptr %4, align 8, !tbaa !15
  %19 = icmp eq i64 %18, -1
  br i1 %19, label %20, label %24

20:                                               ; preds = %17
  %21 = load ptr, ptr %3, align 8, !tbaa !51
  %22 = load ptr, ptr %21, align 8, !tbaa !16
  %23 = getelementptr inbounds i8, ptr %22, i32 -1
  store ptr %23, ptr %21, align 8, !tbaa !16
  br label %29

24:                                               ; preds = %17, %14
  %25 = load i64, ptr %4, align 8, !tbaa !15
  %26 = load ptr, ptr %3, align 8, !tbaa !51
  %27 = load ptr, ptr %26, align 8, !tbaa !16
  %28 = getelementptr inbounds i8, ptr %27, i64 %25
  store ptr %28, ptr %26, align 8, !tbaa !16
  br label %29

29:                                               ; preds = %24, %20
  br label %30

30:                                               ; preds = %29, %10
  ret void
}

; Function Attrs: inlinehint mustprogress nounwind uwtable
define linkonce_odr noundef i64 @_ZSt10__distanceIPKcENSt15iterator_traitsIT_E15difference_typeES3_S3_St26random_access_iterator_tag(ptr noundef %0, ptr noundef %1) #6 comdat {
  %3 = alloca ptr, align 8
  %4 = alloca ptr, align 8
  store ptr %0, ptr %3, align 8, !tbaa !16
  store ptr %1, ptr %4, align 8, !tbaa !16
  %5 = load ptr, ptr %4, align 8, !tbaa !16
  %6 = load ptr, ptr %3, align 8, !tbaa !16
  %7 = ptrtoint ptr %5 to i64
  %8 = ptrtoint ptr %6 to i64
  %9 = sub i64 %7, %8
  ret i64 %9
}

; Function Attrs: inlinehint mustprogress uwtable
define linkonce_odr void @_ZSt7advanceIPKclEvRT_T0_(ptr noundef nonnull align 8 dereferenceable(8) %0, i64 noundef %1) #7 comdat {
  %3 = alloca ptr, align 8
  %4 = alloca i64, align 8
  %5 = alloca i64, align 8
  store ptr %0, ptr %3, align 8, !tbaa !51
  store i64 %1, ptr %4, align 8, !tbaa !15
  call void @llvm.lifetime.start.p0(i64 8, ptr %5) #13
  %6 = load i64, ptr %4, align 8, !tbaa !15
  store i64 %6, ptr %5, align 8, !tbaa !15
  %7 = load ptr, ptr %3, align 8, !tbaa !51
  %8 = load i64, ptr %5, align 8, !tbaa !15
  %9 = load ptr, ptr %3, align 8, !tbaa !51
  call void @_ZSt19__iterator_categoryIPKcENSt15iterator_traitsIT_E17iterator_categoryERKS3_(ptr noundef nonnull align 8 dereferenceable(8) %9)
  call void @_ZSt9__advanceIPKclEvRT_T0_St26random_access_iterator_tag(ptr noundef nonnull align 8 dereferenceable(8) %7, i64 noundef %8)
  call void @llvm.lifetime.end.p0(i64 8, ptr %5) #13
  ret void
}

; Function Attrs: inlinehint mustprogress uwtable
define linkonce_odr noundef i64 @_ZSt8distanceIPKcENSt15iterator_traitsIT_E15difference_typeES3_S3_(ptr noundef %0, ptr noundef %1) #7 comdat {
  %3 = alloca ptr, align 8
  %4 = alloca ptr, align 8
  store ptr %0, ptr %3, align 8, !tbaa !16
  store ptr %1, ptr %4, align 8, !tbaa !16
  %5 = load ptr, ptr %3, align 8, !tbaa !16
  %6 = load ptr, ptr %4, align 8, !tbaa !16
  call void @_ZSt19__iterator_categoryIPKcENSt15iterator_traitsIT_E17iterator_categoryERKS3_(ptr noundef nonnull align 8 dereferenceable(8) %3)
  %7 = call noundef i64 @_ZSt10__distanceIPKcENSt15iterator_traitsIT_E15difference_typeES3_S3_St26random_access_iterator_tag(ptr noundef %5, ptr noundef %6)
  ret i64 %7
}

; Function Attrs: mustprogress nounwind uwtable
define linkonce_odr hidden noundef ptr @_ZNKSt16reverse_iteratorIPKcE4baseEv(ptr noundef nonnull align 8 dereferenceable(8) %0) #2 comdat align 2 {
  %2 = alloca ptr, align 8
  store ptr %0, ptr %2, align 8, !tbaa !58
  %3 = load ptr, ptr %2, align 8
  %4 = getelementptr inbounds nuw %"class.std::reverse_iterator", ptr %3, i32 0, i32 0
  %5 = load ptr, ptr %4, align 8, !tbaa !60
  ret ptr %5
}

; Function Attrs: inlinehint mustprogress nounwind uwtable
define linkonce_odr noundef zeroext i1 @_ZSteqIPKcEbRKSt16reverse_iteratorIT_ES6_(ptr noundef nonnull align 8 dereferenceable(8) %0, ptr noundef nonnull align 8 dereferenceable(8) %1) #6 comdat {
  %3 = alloca ptr, align 8
  %4 = alloca ptr, align 8
  store ptr %0, ptr %3, align 8, !tbaa !58
  store ptr %1, ptr %4, align 8, !tbaa !58
  %5 = load ptr, ptr %3, align 8, !tbaa !58
  %6 = call noundef ptr @_ZNKSt16reverse_iteratorIPKcE4baseEv(ptr noundef nonnull align 8 dereferenceable(8) %5) #13
  %7 = load ptr, ptr %4, align 8, !tbaa !58
  %8 = call noundef ptr @_ZNKSt16reverse_iteratorIPKcE4baseEv(ptr noundef nonnull align 8 dereferenceable(8) %7) #13
  %9 = icmp eq ptr %6, %8
  ret i1 %9
}

; Function Attrs: mustprogress nounwind uwtable
define linkonce_odr hidden void @_ZNSt16reverse_iteratorIPKcEC2ERKS2_(ptr noundef nonnull align 8 dereferenceable(8) %0, ptr noundef nonnull align 8 dereferenceable(8) %1) unnamed_addr #2 comdat align 2 {
  %3 = alloca ptr, align 8
  %4 = alloca ptr, align 8
  store ptr %0, ptr %3, align 8, !tbaa !58
  store ptr %1, ptr %4, align 8, !tbaa !58
  %5 = load ptr, ptr %3, align 8
  %6 = getelementptr inbounds nuw %"class.std::reverse_iterator", ptr %5, i32 0, i32 0
  %7 = load ptr, ptr %4, align 8, !tbaa !58
  %8 = getelementptr inbounds nuw %"class.std::reverse_iterator", ptr %7, i32 0, i32 0
  %9 = load ptr, ptr %8, align 8, !tbaa !60
  store ptr %9, ptr %6, align 8, !tbaa !60
  ret void
}

; Function Attrs: mustprogress nounwind uwtable
define linkonce_odr hidden void @_ZNSt16reverse_iteratorIPKcEC2ES1_(ptr noundef nonnull align 8 dereferenceable(8) %0, ptr noundef %1) unnamed_addr #2 comdat align 2 {
  %3 = alloca ptr, align 8
  %4 = alloca ptr, align 8
  store ptr %0, ptr %3, align 8, !tbaa !58
  store ptr %1, ptr %4, align 8, !tbaa !16
  %5 = load ptr, ptr %3, align 8
  %6 = getelementptr inbounds nuw %"class.std::reverse_iterator", ptr %5, i32 0, i32 0
  %7 = load ptr, ptr %4, align 8, !tbaa !16
  store ptr %7, ptr %6, align 8, !tbaa !60
  ret void
}

; Function Attrs: mustprogress uwtable
define linkonce_odr hidden noundef ptr @_ZSt10__find_endIPKcS1_N9__gnu_cxx5__ops19_Iter_equal_to_iterEET_S5_S5_T0_S6_St26bidirectional_iterator_tagS7_T1_(ptr noundef %0, ptr noundef %1, ptr noundef %2, ptr noundef %3) #0 comdat {
  %5 = alloca ptr, align 8
  %6 = alloca ptr, align 8
  %7 = alloca ptr, align 8
  %8 = alloca ptr, align 8
  %9 = alloca ptr, align 8
  %10 = alloca %"class.std::reverse_iterator", align 8
  %11 = alloca %"class.std::reverse_iterator", align 8
  %12 = alloca %"class.std::reverse_iterator", align 8
  %13 = alloca %"class.std::reverse_iterator", align 8
  %14 = alloca %"class.std::reverse_iterator", align 8
  %15 = alloca %"class.std::reverse_iterator", align 8
  %16 = alloca %"class.std::reverse_iterator", align 8
  %17 = alloca i32, align 4
  %18 = alloca ptr, align 8
  store ptr %0, ptr %6, align 8, !tbaa !16
  store ptr %1, ptr %7, align 8, !tbaa !16
  store ptr %2, ptr %8, align 8, !tbaa !16
  store ptr %3, ptr %9, align 8, !tbaa !16
  call void @llvm.lifetime.start.p0(i64 8, ptr %10) #13
  %19 = load ptr, ptr %6, align 8, !tbaa !16
  call void @_ZNSt16reverse_iteratorIPKcEC2ES1_(ptr noundef nonnull align 8 dereferenceable(8) %10, ptr noundef %19) #13
  call void @llvm.lifetime.start.p0(i64 8, ptr %11) #13
  %20 = load ptr, ptr %8, align 8, !tbaa !16
  call void @_ZNSt16reverse_iteratorIPKcEC2ES1_(ptr noundef nonnull align 8 dereferenceable(8) %11, ptr noundef %20) #13
  call void @llvm.lifetime.start.p0(i64 8, ptr %12) #13
  %21 = load ptr, ptr %7, align 8, !tbaa !16
  call void @_ZNSt16reverse_iteratorIPKcEC2ES1_(ptr noundef nonnull align 8 dereferenceable(8) %13, ptr noundef %21) #13
  call void @_ZNSt16reverse_iteratorIPKcEC2ERKS2_(ptr noundef nonnull align 8 dereferenceable(8) %14, ptr noundef nonnull align 8 dereferenceable(8) %10) #13
  %22 = load ptr, ptr %9, align 8, !tbaa !16
  call void @_ZNSt16reverse_iteratorIPKcEC2ES1_(ptr noundef nonnull align 8 dereferenceable(8) %15, ptr noundef %22) #13
  call void @_ZNSt16reverse_iteratorIPKcEC2ERKS2_(ptr noundef nonnull align 8 dereferenceable(8) %16, ptr noundef nonnull align 8 dereferenceable(8) %11) #13
  call void @_ZSt8__searchISt16reverse_iteratorIPKcES3_N9__gnu_cxx5__ops19_Iter_equal_to_iterEET_S7_S7_T0_S8_T1_(ptr dead_on_unwind writable sret(%"class.std::reverse_iterator") align 8 %12, ptr noundef %13, ptr noundef %14, ptr noundef %15, ptr noundef %16)
  %23 = call noundef zeroext i1 @_ZSteqIPKcEbRKSt16reverse_iteratorIT_ES6_(ptr noundef nonnull align 8 dereferenceable(8) %12, ptr noundef nonnull align 8 dereferenceable(8) %10)
  br i1 %23, label %24, label %26

24:                                               ; preds = %4
  %25 = load ptr, ptr %7, align 8, !tbaa !16
  store ptr %25, ptr %5, align 8
  store i32 1, ptr %17, align 4
  br label %33

26:                                               ; preds = %4
  call void @llvm.lifetime.start.p0(i64 8, ptr %18) #13
  %27 = call noundef ptr @_ZNKSt16reverse_iteratorIPKcE4baseEv(ptr noundef nonnull align 8 dereferenceable(8) %12) #13
  store ptr %27, ptr %18, align 8, !tbaa !16
  %28 = load ptr, ptr %8, align 8, !tbaa !16
  %29 = load ptr, ptr %9, align 8, !tbaa !16
  %30 = call noundef i64 @_ZSt8distanceIPKcENSt15iterator_traitsIT_E15difference_typeES3_S3_(ptr noundef %28, ptr noundef %29)
  %31 = sub nsw i64 0, %30
  call void @_ZSt7advanceIPKclEvRT_T0_(ptr noundef nonnull align 8 dereferenceable(8) %18, i64 noundef %31)
  %32 = load ptr, ptr %18, align 8, !tbaa !16
  store ptr %32, ptr %5, align 8
  store i32 1, ptr %17, align 4
  call void @llvm.lifetime.end.p0(i64 8, ptr %18) #13
  br label %33

33:                                               ; preds = %26, %24
  call void @llvm.lifetime.end.p0(i64 8, ptr %12) #13
  call void @llvm.lifetime.end.p0(i64 8, ptr %11) #13
  call void @llvm.lifetime.end.p0(i64 8, ptr %10) #13
  %34 = load ptr, ptr %5, align 8
  ret ptr %34
}

; Function Attrs: inlinehint mustprogress nounwind uwtable
define linkonce_odr hidden void @_ZN9__gnu_cxx5__ops20__iter_equal_to_iterEv() #6 comdat {
  ret void
}

; Function Attrs: inlinehint mustprogress nounwind uwtable
define linkonce_odr void @_ZSt19__iterator_categoryIPKcENSt15iterator_traitsIT_E17iterator_categoryERKS3_(ptr noundef nonnull align 8 dereferenceable(8) %0) #6 comdat {
  %2 = alloca ptr, align 8
  store ptr %0, ptr %2, align 8, !tbaa !51
  ret void
}

; Function Attrs: inlinehint mustprogress uwtable
define linkonce_odr noundef ptr @_ZSt8find_endIPKcS1_ET_S2_S2_T0_S3_(ptr noundef %0, ptr noundef %1, ptr noundef %2, ptr noundef %3) #7 comdat {
  %5 = alloca ptr, align 8
  %6 = alloca ptr, align 8
  %7 = alloca ptr, align 8
  %8 = alloca ptr, align 8
  store ptr %0, ptr %5, align 8, !tbaa !16
  store ptr %1, ptr %6, align 8, !tbaa !16
  store ptr %2, ptr %7, align 8, !tbaa !16
  store ptr %3, ptr %8, align 8, !tbaa !16
  %9 = load ptr, ptr %5, align 8, !tbaa !16
  %10 = load ptr, ptr %6, align 8, !tbaa !16
  %11 = load ptr, ptr %7, align 8, !tbaa !16
  %12 = load ptr, ptr %8, align 8, !tbaa !16
  call void @_ZSt19__iterator_categoryIPKcENSt15iterator_traitsIT_E17iterator_categoryERKS3_(ptr noundef nonnull align 8 dereferenceable(8) %5)
  call void @_ZSt19__iterator_categoryIPKcENSt15iterator_traitsIT_E17iterator_categoryERKS3_(ptr noundef nonnull align 8 dereferenceable(8) %7)
  call void @_ZN9__gnu_cxx5__ops20__iter_equal_to_iterEv()
  %13 = call noundef ptr @_ZSt10__find_endIPKcS1_N9__gnu_cxx5__ops19_Iter_equal_to_iterEET_S5_S5_T0_S6_St26bidirectional_iterator_tagS7_T1_(ptr noundef %9, ptr noundef %10, ptr noundef %11, ptr noundef %12)
  ret ptr %13
}

; Function Attrs: inlinehint mustprogress nounwind uwtable
define linkonce_odr noundef nonnull align 8 dereferenceable(8) ptr @_ZSt3minImERKT_S2_S2_(ptr noundef nonnull align 8 dereferenceable(8) %0, ptr noundef nonnull align 8 dereferenceable(8) %1) #6 comdat {
  %3 = alloca ptr, align 8
  %4 = alloca ptr, align 8
  %5 = alloca ptr, align 8
  store ptr %0, ptr %4, align 8, !tbaa !20
  store ptr %1, ptr %5, align 8, !tbaa !20
  %6 = load ptr, ptr %5, align 8, !tbaa !20
  %7 = load i64, ptr %6, align 8, !tbaa !15
  %8 = load ptr, ptr %4, align 8, !tbaa !20
  %9 = load i64, ptr %8, align 8, !tbaa !15
  %10 = icmp ult i64 %7, %9
  br i1 %10, label %11, label %13

11:                                               ; preds = %2
  %12 = load ptr, ptr %5, align 8, !tbaa !20
  store ptr %12, ptr %3, align 8
  br label %15

13:                                               ; preds = %2
  %14 = load ptr, ptr %4, align 8, !tbaa !20
  store ptr %14, ptr %3, align 8
  br label %15

15:                                               ; preds = %13, %11
  %16 = load ptr, ptr %3, align 8
  ret ptr %16
}

; Function Attrs: mustprogress uwtable
define hidden noundef i64 @_ZNK6google8protobuf20stringpiece_internal11StringPiece5rfindES2_m(ptr noundef nonnull align 8 dereferenceable(16) %0, ptr %1, i64 %2, i64 noundef %3) #0 align 2 {
  %5 = alloca i64, align 8
  %6 = alloca %"class.google::protobuf::stringpiece_internal::StringPiece", align 8
  %7 = alloca ptr, align 8
  %8 = alloca i64, align 8
  %9 = alloca i64, align 8
  %10 = alloca i32, align 4
  %11 = alloca ptr, align 8
  %12 = alloca i64, align 8
  %13 = alloca ptr, align 8
  %14 = getelementptr inbounds nuw { ptr, i64 }, ptr %6, i32 0, i32 0
  store ptr %1, ptr %14, align 8
  %15 = getelementptr inbounds nuw { ptr, i64 }, ptr %6, i32 0, i32 1
  store i64 %2, ptr %15, align 8
  store ptr %0, ptr %7, align 8, !tbaa !8
  store i64 %3, ptr %8, align 8, !tbaa !15
  %16 = load ptr, ptr %7, align 8
  %17 = getelementptr inbounds nuw %"class.google::protobuf::stringpiece_internal::StringPiece", ptr %16, i32 0, i32 1
  %18 = load i64, ptr %17, align 8, !tbaa !14
  %19 = getelementptr inbounds nuw %"class.google::protobuf::stringpiece_internal::StringPiece", ptr %6, i32 0, i32 1
  %20 = load i64, ptr %19, align 8, !tbaa !14
  %21 = icmp ult i64 %18, %20
  br i1 %21, label %22, label %23

22:                                               ; preds = %4
  store i64 -1, ptr %5, align 8
  br label %70

23:                                               ; preds = %4
  call void @llvm.lifetime.start.p0(i64 8, ptr %9) #13
  %24 = getelementptr inbounds nuw %"class.google::protobuf::stringpiece_internal::StringPiece", ptr %16, i32 0, i32 1
  %25 = load i64, ptr %24, align 8, !tbaa !14
  store i64 %25, ptr %9, align 8, !tbaa !15
  %26 = getelementptr inbounds nuw %"class.google::protobuf::stringpiece_internal::StringPiece", ptr %6, i32 0, i32 1
  %27 = load i64, ptr %26, align 8, !tbaa !14
  %28 = icmp eq i64 %27, 0
  br i1 %28, label %29, label %32

29:                                               ; preds = %23
  %30 = call noundef nonnull align 8 dereferenceable(8) ptr @_ZSt3minImERKT_S2_S2_(ptr noundef nonnull align 8 dereferenceable(8) %9, ptr noundef nonnull align 8 dereferenceable(8) %8)
  %31 = load i64, ptr %30, align 8, !tbaa !15
  store i64 %31, ptr %5, align 8
  store i32 1, ptr %10, align 4
  br label %69

32:                                               ; preds = %23
  call void @llvm.lifetime.start.p0(i64 8, ptr %11) #13
  %33 = getelementptr inbounds nuw %"class.google::protobuf::stringpiece_internal::StringPiece", ptr %16, i32 0, i32 0
  %34 = load ptr, ptr %33, align 8, !tbaa !10
  call void @llvm.lifetime.start.p0(i64 8, ptr %12) #13
  %35 = load i64, ptr %9, align 8, !tbaa !15
  %36 = getelementptr inbounds nuw %"class.google::protobuf::stringpiece_internal::StringPiece", ptr %6, i32 0, i32 1
  %37 = load i64, ptr %36, align 8, !tbaa !14
  %38 = sub i64 %35, %37
  store i64 %38, ptr %12, align 8, !tbaa !15
  %39 = call noundef nonnull align 8 dereferenceable(8) ptr @_ZSt3minImERKT_S2_S2_(ptr noundef nonnull align 8 dereferenceable(8) %12, ptr noundef nonnull align 8 dereferenceable(8) %8)
  %40 = load i64, ptr %39, align 8, !tbaa !15
  %41 = getelementptr inbounds nuw i8, ptr %34, i64 %40
  %42 = getelementptr inbounds nuw %"class.google::protobuf::stringpiece_internal::StringPiece", ptr %6, i32 0, i32 1
  %43 = load i64, ptr %42, align 8, !tbaa !14
  %44 = getelementptr inbounds nuw i8, ptr %41, i64 %43
  call void @llvm.lifetime.end.p0(i64 8, ptr %12) #13
  store ptr %44, ptr %11, align 8, !tbaa !16
  call void @llvm.lifetime.start.p0(i64 8, ptr %13) #13
  %45 = getelementptr inbounds nuw %"class.google::protobuf::stringpiece_internal::StringPiece", ptr %16, i32 0, i32 0
  %46 = load ptr, ptr %45, align 8, !tbaa !10
  %47 = load ptr, ptr %11, align 8, !tbaa !16
  %48 = getelementptr inbounds nuw %"class.google::protobuf::stringpiece_internal::StringPiece", ptr %6, i32 0, i32 0
  %49 = load ptr, ptr %48, align 8, !tbaa !10
  %50 = getelementptr inbounds nuw %"class.google::protobuf::stringpiece_internal::StringPiece", ptr %6, i32 0, i32 0
  %51 = load ptr, ptr %50, align 8, !tbaa !10
  %52 = getelementptr inbounds nuw %"class.google::protobuf::stringpiece_internal::StringPiece", ptr %6, i32 0, i32 1
  %53 = load i64, ptr %52, align 8, !tbaa !14
  %54 = getelementptr inbounds nuw i8, ptr %51, i64 %53
  %55 = call noundef ptr @_ZSt8find_endIPKcS1_ET_S2_S2_T0_S3_(ptr noundef %46, ptr noundef %47, ptr noundef %49, ptr noundef %54)
  store ptr %55, ptr %13, align 8, !tbaa !16
  %56 = load ptr, ptr %13, align 8, !tbaa !16
  %57 = load ptr, ptr %11, align 8, !tbaa !16
  %58 = icmp ne ptr %56, %57
  br i1 %58, label %59, label %66

59:                                               ; preds = %32
  %60 = load ptr, ptr %13, align 8, !tbaa !16
  %61 = getelementptr inbounds nuw %"class.google::protobuf::stringpiece_internal::StringPiece", ptr %16, i32 0, i32 0
  %62 = load ptr, ptr %61, align 8, !tbaa !10
  %63 = ptrtoint ptr %60 to i64
  %64 = ptrtoint ptr %62 to i64
  %65 = sub i64 %63, %64
  br label %67

66:                                               ; preds = %32
  br label %67

67:                                               ; preds = %66, %59
  %68 = phi i64 [ %65, %59 ], [ -1, %66 ]
  store i64 %68, ptr %5, align 8
  store i32 1, ptr %10, align 4
  call void @llvm.lifetime.end.p0(i64 8, ptr %13) #13
  call void @llvm.lifetime.end.p0(i64 8, ptr %11) #13
  br label %69

69:                                               ; preds = %67, %29
  call void @llvm.lifetime.end.p0(i64 8, ptr %9) #13
  br label %70

70:                                               ; preds = %69, %22
  %71 = load i64, ptr %5, align 8
  ret i64 %71
}